(dp0
S'synsPerConn'
p1
(dp2
S'TPO'
p3
I5
sS'S2'
p4
I5
sS'S1'
p5
I5
sS'OC'
p6
I5
sS'TVL'
p7
I5
sS'M2'
p8
I5
sS'cM1'
p9
I5
ssS'rates'
p10
(dp11
g3
(lp12
I0
aI5
asg4
(lp13
I0
aI5
asg5
(lp14
I0
aI5
asg6
(lp15
I0
aI5
asg7
(lp16
I0
aI5
asg8
(lp17
I0
aI5
asg9
(lp18
I0
aI5
assS'numSyns'
p19
(dp20
S'M1'
p21
(dp22
S'CT6'
p23
I8234
sS'PV2'
p24
I8234
sS'PV6'
p25
I8234
sS'SOM5A'
p26
I8234
sS'PT5B'
p27
I8234
sS'IT5B'
p28
I8234
sS'IT5A'
p29
I8234
sS'PV5A'
p30
I8234
sS'PV5B'
p31
I8234
sS'IT6'
p32
I8234
sS'IT4'
p33
I8234
sS'SOM2'
p34
I8234
sS'IT2'
p35
I8234
sS'SOM5B'
p36
I8234
sS'SOM6'
p37
I8234
ssS'Meyer'
p38
(dp39
g27
cnumpy.core.multiarray
scalar
p40
(cnumpy
dtype
p41
(S'f8'
p42
I0
I1
tp43
Rp44
(I3
S'<'
p45
NNNI-1
I-1
I0
tp46
bS'\xdb\xb6m\xdb\xb6O\xa4@'
p47
tp48
Rp49
sS'STL4'
p50
g49
sg32
g49
sg33
g49
sS'IT5'
p51
g49
sg35
g49
sS'IT3'
p52
g49
sssS'cmat'
p53
(dp54
(g4
S'PT'
p55
S'inh'
p56
tp57
(lp58
F5.0
aF5.0
aF5.0
as(g5
S'PV'
p59
g56
tp60
(lp61
F10.0
aF1.0
aF14.0
aF2.0
aF1.0
as(g5
S'SOM'
p62
S'exc'
p63
tp64
(lp65
F111.0
aF16.0
aF158.0
aF22.0
aF16.0
as(g9
g62
g56
tp66
(lp67
F2.0
aF2.0
aF2.0
aF14.0
aF14.0
aF6.0
as(g7
g59
g56
tp68
(lp69
F4.0
aF6.0
aF9.0
aF4.0
aF9.0
aF9.0
aF9.0
aF1.0
aF1.0
as(g7
S'IT'
p70
g56
tp71
(lp72
F4.0
aF6.0
aF14.0
aF4.0
aF4.0
aF4.0
aF4.0
aF2.0
aF1.0
as(g7
S'CT'
p73
g63
tp74
(lp75
F8.0
aF8.0
as(g9
g62
g63
tp76
(lp77
F27.0
aF17.0
aF17.0
aF158.0
aF158.0
aF70.0
as(g7
g70
g63
tp78
(lp79
F50.0
aF72.0
aF158.0
aF40.0
aF48.0
aF48.0
aF48.0
aF23.0
aF8.0
as(g3
g59
g56
tp80
(lp81
F5.0
aF14.0
aF14.0
aF11.0
aF5.0
aF2.0
aF1.0
aF0.0
aF0.0
as(g3
g62
g63
tp82
(lp83
F57.0
aF158.0
aF158.0
aF127.0
aF55.0
aF20.0
aF10.0
aF5.0
aF5.0
as(g6
g59
g56
tp84
(lp85
F2.0
aF1.0
aF3.0
aF3.0
aF9.0
as(g4
g55
g63
tp86
(lp87
F55.0
aF55.0
aF55.0
as(g3
g70
g56
tp88
(lp89
F5.0
aF14.0
aF14.0
aF11.0
aF5.0
aF2.0
aF1.0
aF0.0
aF0.0
as(g5
g70
g63
tp90
(lp91
F111.0
aF16.0
aF158.0
aF22.0
aF16.0
as(g6
g73
g56
tp92
(lp93
F9.0
as(g6
g55
g56
tp94
(lp95
F3.0
as(g7
g59
g63
tp96
(lp97
F50.0
aF72.0
aF107.0
aF40.0
aF100.0
aF100.0
aF100.0
aF10.0
aF10.0
as(g6
g59
g63
tp98
(lp99
F20.0
aF11.0
aF32.0
aF30.0
aF105.0
as(g4
g73
g56
tp100
(lp101
F3.0
as(g8
g73
g56
tp102
(lp103
F4.0
as(g6
g55
g63
tp104
(lp105
F30.0
as(g3
g55
g56
tp106
(lp107
F5.0
aF2.0
aF1.0
as(g9
g73
g56
tp108
(lp109
F6.0
as(g8
g73
g63
tp110
(lp111
F46.0
as(g8
g70
g56
tp112
(lp113
F2.0
aF1.0
aF1.0
aF9.0
aF9.0
aF4.0
as(g4
g62
g56
tp114
(lp115
F14.0
aF1.0
aF6.0
aF5.0
aF5.0
aF5.0
aF3.0
as(g9
g59
g56
tp116
(lp117
F2.0
aF2.0
aF2.0
aF14.0
aF14.0
aF6.0
as(g7
g55
g56
tp118
(lp119
F13.0
aF13.0
aF13.0
as(g4
g62
g63
tp120
(lp121
F158.0
aF16.0
aF73.0
aF55.0
aF55.0
aF55.0
aF32.0
as(g5
g62
g56
tp122
(lp123
F10.0
aF1.0
aF14.0
aF2.0
aF1.0
as(g9
g70
g56
tp124
(lp125
F2.0
aF2.0
aF2.0
aF14.0
aF14.0
aF6.0
as(g6
g62
g56
tp126
(lp127
F2.0
aF1.0
aF3.0
aF3.0
aF9.0
as(g4
g70
g56
tp128
(lp129
F14.0
aF1.0
aF6.0
aF5.0
aF5.0
aF5.0
aF3.0
as(g8
g55
g63
tp130
(lp131
F105.0
aF105.0
as(g5
g70
g56
tp132
(lp133
F10.0
aF1.0
aF14.0
aF2.0
aF1.0
as(g8
g62
g63
tp134
(lp135
F18.0
aF12.0
aF12.0
aF105.0
aF105.0
aF46.0
as(g8
g59
g56
tp136
(lp137
F2.0
aF1.0
aF1.0
aF9.0
aF9.0
aF4.0
as(g9
g73
g63
tp138
(lp139
F70.0
as(g5
g55
g63
tp140
(lp141
F22.0
as(g4
g70
g63
tp142
(lp143
F158.0
aF16.0
aF73.0
aF55.0
aF55.0
aF55.0
aF32.0
as(g3
g62
g56
tp144
(lp145
F5.0
aF14.0
aF14.0
aF11.0
aF5.0
aF2.0
aF1.0
aF0.0
aF0.0
as(g5
g59
g63
tp146
(lp147
F111.0
aF16.0
aF158.0
aF22.0
aF16.0
as(g3
g73
g63
tp148
(lp149
F5.0
aF5.0
as(g7
g62
g56
tp150
(lp151
F4.0
aF6.0
aF9.0
aF4.0
aF9.0
aF9.0
aF9.0
aF1.0
aF1.0
as(g7
g55
g63
tp152
(lp153
F152.0
aF152.0
aF152.0
as(g6
g73
g63
tp154
(lp155
F105.0
as(g9
g70
g63
tp156
(lp157
F27.0
aF17.0
aF17.0
aF158.0
aF158.0
aF70.0
as(g8
g62
g56
tp158
(lp159
F2.0
aF1.0
aF1.0
aF9.0
aF9.0
aF4.0
as(g3
g73
g56
tp160
(lp161
F0.0
aF0.0
as(g3
g59
g63
tp162
(lp163
F57.0
aF158.0
aF158.0
aF127.0
aF55.0
aF20.0
aF10.0
aF5.0
aF5.0
as(g5
g73
g63
tp164
(lp165
F16.0
as(g6
g70
g56
tp166
(lp167
F2.0
aF1.0
aF3.0
aF3.0
aF9.0
as(g5
g55
g56
tp168
(lp169
F2.0
as(g4
g59
g56
tp170
(lp171
F14.0
aF1.0
aF6.0
aF5.0
aF5.0
aF5.0
aF3.0
as(g7
g73
g56
tp172
(lp173
F1.0
aF1.0
as(g5
g73
g56
tp174
(lp175
F1.0
as(g7
g62
g63
tp176
(lp177
F50.0
aF72.0
aF107.0
aF40.0
aF100.0
aF100.0
aF100.0
aF10.0
aF10.0
as(g6
g62
g63
tp178
(lp179
F20.0
aF11.0
aF32.0
aF30.0
aF105.0
as(g9
g55
g63
tp180
(lp181
F158.0
aF158.0
as(g4
g59
g63
tp182
(lp183
F158.0
aF16.0
aF73.0
aF55.0
aF55.0
aF55.0
aF32.0
as(g9
g59
g63
tp184
(lp185
F27.0
aF17.0
aF17.0
aF158.0
aF158.0
aF70.0
as(g3
g70
g63
tp186
(lp187
F57.0
aF158.0
aF158.0
aF127.0
aF55.0
aF20.0
aF10.0
aF5.0
aF5.0
as(g3
g55
g63
tp188
(lp189
F55.0
aF20.0
aF10.0
as(g9
g55
g56
tp190
(lp191
F14.0
aF14.0
as(g6
g70
g63
tp192
(lp193
F20.0
aF11.0
aF32.0
aF30.0
aF105.0
as(g8
g70
g63
tp194
(lp195
F18.0
aF12.0
aF12.0
aF105.0
aF105.0
aF46.0
as(g8
g55
g56
tp196
(lp197
F9.0
aF9.0
as(g4
g73
g63
tp198
(lp199
F32.0
as(g8
g59
g63
tp200
(lp201
F18.0
aF12.0
aF12.0
aF105.0
aF105.0
aF46.0
assS'delays'
p202
(dp203
g3
I5
sg4
I5
sg5
I5
sg6
I5
sg7
I5
sg8
I5
sg9
I5
ssS'wmat'
p204
(dp205
g3
F0.6
sg4
F0.5
sg5
F0.5
sg6
F0.5
sg7
F0.6
sg8
F0.5
sg9
F0.5
ssS'numCells'
p206
(dp207
g3
I600
sg4
I600
sg5
I600
sg6
I600
sg7
I600
sg8
I600
sg9
I600
ssS'bins'
p208
(dp209
(g5
g73
tp210
(lp211
(lp212
F0.8
aF1.0
aas(g3
g70
tp213
(lp214
(lp215
F0.1
aF0.195
aa(lp216
F0.195
aF0.29
aa(lp217
F0.29
aF0.37
aa(lp218
F0.37
aF0.47
aa(lp219
F0.47
aF0.58
aa(lp220
F0.58
aF0.6900000000000001
aa(lp221
F0.6900000000000001
aF0.8
aa(lp222
F0.8
aF0.9
aa(lp223
F0.9
aF1.0
aas(g5
g70
tp224
(lp225
(lp226
F0.1
aF0.29
aa(lp227
F0.29
aF0.37
aa(lp228
F0.37
aF0.47
aa(lp229
F0.47
aF0.8
aag212
asS'Hooks13_OC'
p230
(lp231
(lp232
F0.1
aF0.29
aa(lp233
F0.29
aF0.37
aa(lp234
F0.37
aF0.47
aa(lp235
F0.47
aF0.8
aa(lp236
F0.8
aF1.0
aas(g9
g73
tp237
(lp238
(lp239
F0.8
aF1.0
aasS'Yama15elife'
p240
(lp241
(lp242
F0.1
aF0.2
aa(lp243
F0.2
aF0.3
aa(lp244
F0.3
aF0.4
aa(lp245
F0.4
aF0.5
aa(lp246
F0.5
aF0.6
aa(lp247
F0.6
aF0.7
aa(lp248
F0.7
aF0.8
aa(lp249
F0.8
aF0.9
aas(g4
g73
tp250
(lp251
(lp252
F0.8
aF1.0
aasS'Yama15'
p253
(lp254
g215
ag216
ag217
ag218
ag219
ag220
ag221
ag222
ag223
as(g3
g55
tp255
(lp256
g219
ag220
ag221
as(g7
g59
tp257
g214
s(g8
g73
tp258
g238
sS'layers'
p259
(lp260
I0
aF0.1
aF0.29
aF0.37
aF0.47
aF0.8
aF1.0
as(g4
g70
tp261
(lp262
(lp263
F0.1
aF0.29
aa(lp264
F0.29
aF0.37
aa(lp265
F0.37
aF0.47
aa(lp266
F0.47
aF0.58
aa(lp267
F0.58
aF0.6900000000000001
aa(lp268
F0.6900000000000001
aF0.8
aag252
as(g9
g62
tp269
(lp270
(lp271
F0.1
aF0.29
aa(lp272
F0.29
aF0.37
aa(lp273
F0.37
aF0.47
aa(lp274
F0.47
aF0.635
aa(lp275
F0.635
aF0.8
aag239
as(g5
g55
tp276
(lp277
g229
as(g7
g73
tp278
(lp279
g222
ag223
as(g6
g73
tp280
(lp281
g236
as(g6
g59
tp282
g231
s(g4
g62
tp283
g262
s(g7
g62
tp284
g214
s(g8
g62
tp285
g270
s(g7
g70
tp286
g214
s(g8
g70
tp287
g270
s(g8
g59
tp288
g270
sS'layerLabels'
p289
(lp290
S'pia'
p291
aS'L1-L2 border'
p292
aS'L2/3-L4 border'
p293
aS'L4-L5A border'
p294
aS'L5A-L5B border'
p295
aS'L5B-L6 border'
p296
aS'L6-WM border'
p297
as(g3
g62
tp298
g214
s(g6
g70
tp299
g231
s(g6
g62
tp300
g231
s(g5
g62
tp301
g225
s(g9
g70
tp302
g270
s(g9
g59
tp303
g270
sS'Yama15_labels'
p304
(lp305
S'L23u'
p306
aS'L23l'
p307
aS'L4'
p308
aS'L5A'
p309
aS'L5Bu'
p310
aS'L5Bm'
p311
aS'L5Bl'
p312
aS'L6u'
p313
aS'L6l'
p314
as(g8
g55
tp315
(lp316
g274
ag275
as(g3
g59
tp317
g214
s(g7
g55
tp318
g256
s(g5
g59
tp319
g225
sS'Mao11'
p320
(lp321
(lp322
F0.1
aF0.29
aa(lp323
F0.29
aF0.47
aa(lp324
F0.47
aF0.8
aa(lp325
F0.8
aF1.0
aasS'Hooks13_M2'
p326
g270
s(g6
g55
tp327
(lp328
g235
as(g3
g73
tp329
g279
s(g4
g59
tp330
g262
sS'Suter15'
p331
g262
s(g4
g55
tp332
(lp333
g266
ag267
ag268
as(g9
g55
tp334
g316
ss.